; Function Attrs: mustprogress nofree norecurse nosync nounwind willreturn memory(read, argmem: readwrite, inaccessiblemem: none) uwtable
define void @_ZNK6icu_7517ResourceDataValue8getArrayER10UErrorCode(ptr noalias nocapture writeonly sret(%"class.icu_75::ResourceArray") align 8 %agg.result, ptr nocapture noundef nonnull readonly align 8 dereferenceable(29) %this, ptr nocapture noundef nonnull align 4 dereferenceable(4) %errorCode) unnamed_addr #5 align 2 {
entry:
  %0 = load i32, ptr %errorCode, align 4
  %cmp.i = icmp slt i32 %0, 1
  br i1 %cmp.i, label %if.end, label %if.then

if.then:                                          ; preds = %entry
  tail call void @llvm.memset.p0.i64(ptr noundef nonnull align 8 dereferenceable(20) %agg.result, i8 0, i64 20, i1 false)
  br label %return

if.end:                                           ; preds = %entry
  %res = getelementptr inbounds i8, ptr %this, i64 24
  %1 = load i32, ptr %res, align 8
  %and = and i32 %1, 268435455
  %shr = lshr i32 %1, 28
  switch i32 %shr, label %sw.default [
    i32 8, label %sw.bb
    i32 9, label %sw.bb6
  ]

sw.bb:                                            ; preds = %if.end
  %cmp.not = icmp eq i32 %and, 0
  br i1 %cmp.not, label %sw.epilog, label %if.then3

if.then3:                                         ; preds = %sw.bb
  %pResData.i = getelementptr inbounds i8, ptr %this, i64 8
  %2 = load ptr, ptr %pResData.i, align 8
  %pRoot = getelementptr inbounds i8, ptr %2, i64 8
  %3 = load ptr, ptr %pRoot, align 8
  %idx.ext = zext nneg i32 %and to i64
  %add.ptr = getelementptr inbounds i32, ptr %3, i64 %idx.ext
  %incdec.ptr = getelementptr inbounds i8, ptr %add.ptr, i64 4
  %4 = load i32, ptr %add.ptr, align 4
  br label %sw.epilog

sw.bb6:                                           ; preds = %if.end
  %pResData.i6 = getelementptr inbounds i8, ptr %this, i64 8
  %5 = load ptr, ptr %pResData.i6, align 8
  %p16BitUnits = getelementptr inbounds i8, ptr %5, i64 16
  %6 = load ptr, ptr %p16BitUnits, align 8
  %idx.ext8 = zext nneg i32 %and to i64
  %add.ptr9 = getelementptr inbounds i16, ptr %6, i64 %idx.ext8
  %incdec.ptr10 = getelementptr inbounds i8, ptr %add.ptr9, i64 2
  %7 = load i16, ptr %add.ptr9, align 2
  %conv = zext i16 %7 to i32
  br label %sw.epilog

sw.default:                                       ; preds = %if.end
  store i32 17, ptr %errorCode, align 4
  tail call void @llvm.memset.p0.i64(ptr noundef nonnull align 8 dereferenceable(20) %agg.result, i8 0, i64 20, i1 false)
  br label %return

sw.epilog:                                        ; preds = %sw.bb, %if.then3, %sw.bb6
  %items32.0 = phi ptr [ null, %sw.bb6 ], [ %incdec.ptr, %if.then3 ], [ null, %sw.bb ]
  %items16.0 = phi ptr [ %incdec.ptr10, %sw.bb6 ], [ null, %if.then3 ], [ null, %sw.bb ]
  %length.0 = phi i32 [ %conv, %sw.bb6 ], [ %4, %if.then3 ], [ 0, %sw.bb ]
  store ptr %items16.0, ptr %agg.result, align 8
  %items32.i = getelementptr inbounds i8, ptr %agg.result, i64 8
  store ptr %items32.0, ptr %items32.i, align 8
  %length.i = getelementptr inbounds i8, ptr %agg.result, i64 16
  store i32 %length.0, ptr %length.i, align 8
  br label %return

return:                                           ; preds = %sw.epilog, %sw.default, %if.then
  ret void
}